target datalayout = "e-m:e-p270:32:32-p271:32:32-p272:64:64-i64:64-f80:128-n8:16:32:64-S128"
target triple = "x86_64-pc-linux-gnu"

@.str = private unnamed_addr constant [6 x i8] c"%d %d\00", align 1
@.str.1 = private unnamed_addr constant [3 x i8] c"%d\00", align 1
@.str.2 = private unnamed_addr constant [4 x i8] c" %d\00", align 1
@.str.3 = private unnamed_addr constant [2 x i8] c"\0A\00", align 1

; Function Attrs: noinline nounwind uwtable
define dso_local i32 @main() #0 {
  %1 = alloca i32, align 4
  %2 = alloca i32, align 4
  %3 = alloca i32, align 4
  %4 = alloca i32, align 4
  %5 = alloca i32, align 4
  %6 = alloca i32, align 4
  %7 = alloca i32, align 4
  %8 = alloca [11 x [11 x i32]], align 16
  %9 = alloca [11 x [11 x i32]], align 16
  store i32 0, i32* %1, align 4
  %10 = bitcast [11 x [11 x i32]]* %8 to i8*
  call void @llvm.memset.p0i8.i64(i8* align 16 %10, i8 0, i64 484, i1 false)
  %11 = bitcast [11 x [11 x i32]]* %9 to i8*
  call void @llvm.memset.p0i8.i64(i8* align 16 %11, i8 0, i64 484, i1 false)
  %12 = call i32 (i8*, ...) @__isoc99_scanf(i8* getelementptr inbounds ([6 x i8], [6 x i8]* @.str, i64 0, i64 0), i32* %6, i32* %7)
  %13 = load i32, i32* %6, align 4
  %14 = getelementptr inbounds [11 x [11 x i32]], [11 x [11 x i32]]* %8, i64 0, i64 5
  %15 = getelementptr inbounds [11 x i32], [11 x i32]* %14, i64 0, i64 5
  store i32 %13, i32* %15, align 4
  store i32 1, i32* %4, align 4
  br label %16

16:                                               ; preds = %156, %0
  %17 = load i32, i32* %4, align 4
  %18 = load i32, i32* %7, align 4
  %19 = icmp sle i32 %17, %18
  br i1 %19, label %20, label %159

20:                                               ; preds = %16
  store i32 1, i32* %2, align 4
  br label %21

21:                                               ; preds = %123, %20
  %22 = load i32, i32* %2, align 4
  %23 = icmp slt i32 %22, 10
  br i1 %23, label %24, label %126

24:                                               ; preds = %21
  store i32 1, i32* %3, align 4
  br label %25

25:                                               ; preds = %119, %24
  %26 = load i32, i32* %3, align 4
  %27 = icmp slt i32 %26, 10
  br i1 %27, label %28, label %122

28:                                               ; preds = %25
  %29 = load i32, i32* %2, align 4
  %30 = sext i32 %29 to i64
  %31 = getelementptr inbounds [11 x [11 x i32]], [11 x [11 x i32]]* %8, i64 0, i64 %30
  %32 = load i32, i32* %3, align 4
  %33 = sext i32 %32 to i64
  %34 = getelementptr inbounds [11 x i32], [11 x i32]* %31, i64 0, i64 %33
  %35 = load i32, i32* %34, align 4
  %36 = mul nsw i32 2, %35
  %37 = load i32, i32* %2, align 4
  %38 = sub nsw i32 %37, 1
  %39 = sext i32 %38 to i64
  %40 = getelementptr inbounds [11 x [11 x i32]], [11 x [11 x i32]]* %8, i64 0, i64 %39
  %41 = load i32, i32* %3, align 4
  %42 = sext i32 %41 to i64
  %43 = getelementptr inbounds [11 x i32], [11 x i32]* %40, i64 0, i64 %42
  %44 = load i32, i32* %43, align 4
  %45 = add nsw i32 %36, %44
  %46 = load i32, i32* %2, align 4
  %47 = sub nsw i32 %46, 1
  %48 = sext i32 %47 to i64
  %49 = getelementptr inbounds [11 x [11 x i32]], [11 x [11 x i32]]* %8, i64 0, i64 %48
  %50 = load i32, i32* %3, align 4
  %51 = sub nsw i32 %50, 1
  %52 = sext i32 %51 to i64
  %53 = getelementptr inbounds [11 x i32], [11 x i32]* %49, i64 0, i64 %52
  %54 = load i32, i32* %53, align 4
  %55 = add nsw i32 %45, %54
  %56 = load i32, i32* %2, align 4
  %57 = sub nsw i32 %56, 1
  %58 = sext i32 %57 to i64
  %59 = getelementptr inbounds [11 x [11 x i32]], [11 x [11 x i32]]* %8, i64 0, i64 %58
  %60 = load i32, i32* %3, align 4
  %61 = add nsw i32 %60, 1
  %62 = sext i32 %61 to i64
  %63 = getelementptr inbounds [11 x i32], [11 x i32]* %59, i64 0, i64 %62
  %64 = load i32, i32* %63, align 4
  %65 = add nsw i32 %55, %64
  %66 = load i32, i32* %2, align 4
  %67 = sext i32 %66 to i64
  %68 = getelementptr inbounds [11 x [11 x i32]], [11 x [11 x i32]]* %8, i64 0, i64 %67
  %69 = load i32, i32* %3, align 4
  %70 = sub nsw i32 %69, 1
  %71 = sext i32 %70 to i64
  %72 = getelementptr inbounds [11 x i32], [11 x i32]* %68, i64 0, i64 %71
  %73 = load i32, i32* %72, align 4
  %74 = add nsw i32 %65, %73
  %75 = load i32, i32* %2, align 4
  %76 = sext i32 %75 to i64
  %77 = getelementptr inbounds [11 x [11 x i32]], [11 x [11 x i32]]* %8, i64 0, i64 %76
  %78 = load i32, i32* %3, align 4
  %79 = add nsw i32 %78, 1
  %80 = sext i32 %79 to i64
  %81 = getelementptr inbounds [11 x i32], [11 x i32]* %77, i64 0, i64 %80
  %82 = load i32, i32* %81, align 4
  %83 = add nsw i32 %74, %82
  %84 = load i32, i32* %2, align 4
  %85 = add nsw i32 %84, 1
  %86 = sext i32 %85 to i64
  %87 = getelementptr inbounds [11 x [11 x i32]], [11 x [11 x i32]]* %8, i64 0, i64 %86
  %88 = load i32, i32* %3, align 4
  %89 = sub nsw i32 %88, 1
  %90 = sext i32 %89 to i64
  %91 = getelementptr inbounds [11 x i32], [11 x i32]* %87, i64 0, i64 %90
  %92 = load i32, i32* %91, align 4
  %93 = add nsw i32 %83, %92
  %94 = load i32, i32* %2, align 4
  %95 = add nsw i32 %94, 1
  %96 = sext i32 %95 to i64
  %97 = getelementptr inbounds [11 x [11 x i32]], [11 x [11 x i32]]* %8, i64 0, i64 %96
  %98 = load i32, i32* %3, align 4
  %99 = sext i32 %98 to i64
  %100 = getelementptr inbounds [11 x i32], [11 x i32]* %97, i64 0, i64 %99
  %101 = load i32, i32* %100, align 4
  %102 = add nsw i32 %93, %101
  %103 = load i32, i32* %2, align 4
  %104 = add nsw i32 %103, 1
  %105 = sext i32 %104 to i64
  %106 = getelementptr inbounds [11 x [11 x i32]], [11 x [11 x i32]]* %8, i64 0, i64 %105
  %107 = load i32, i32* %3, align 4
  %108 = add nsw i32 %107, 1
  %109 = sext i32 %108 to i64
  %110 = getelementptr inbounds [11 x i32], [11 x i32]* %106, i64 0, i64 %109
  %111 = load i32, i32* %110, align 4
  %112 = add nsw i32 %102, %111
  %113 = load i32, i32* %2, align 4
  %114 = sext i32 %113 to i64
  %115 = getelementptr inbounds [11 x [11 x i32]], [11 x [11 x i32]]* %9, i64 0, i64 %114
  %116 = load i32, i32* %3, align 4
  %117 = sext i32 %116 to i64
  %118 = getelementptr inbounds [11 x i32], [11 x i32]* %115, i64 0, i64 %117
  store i32 %112, i32* %118, align 4
  br label %119

119:                                              ; preds = %28
  %120 = load i32, i32* %3, align 4
  %121 = add nsw i32 %120, 1
  store i32 %121, i32* %3, align 4
  br label %25

122:                                              ; preds = %25
  br label %123

123:                                              ; preds = %122
  %124 = load i32, i32* %2, align 4
  %125 = add nsw i32 %124, 1
  store i32 %125, i32* %2, align 4
  br label %21

126:                                              ; preds = %21
  store i32 0, i32* %2, align 4
  br label %127

127:                                              ; preds = %152, %126
  %128 = load i32, i32* %2, align 4
  %129 = icmp slt i32 %128, 11
  br i1 %129, label %130, label %155

130:                                              ; preds = %127
  store i32 0, i32* %3, align 4
  br label %131

131:                                              ; preds = %148, %130
  %132 = load i32, i32* %3, align 4
  %133 = icmp slt i32 %132, 11
  br i1 %133, label %134, label %151

134:                                              ; preds = %131
  %135 = load i32, i32* %2, align 4
  %136 = sext i32 %135 to i64
  %137 = getelementptr inbounds [11 x [11 x i32]], [11 x [11 x i32]]* %9, i64 0, i64 %136
  %138 = load i32, i32* %3, align 4
  %139 = sext i32 %138 to i64
  %140 = getelementptr inbounds [11 x i32], [11 x i32]* %137, i64 0, i64 %139
  %141 = load i32, i32* %140, align 4
  %142 = load i32, i32* %2, align 4
  %143 = sext i32 %142 to i64
  %144 = getelementptr inbounds [11 x [11 x i32]], [11 x [11 x i32]]* %8, i64 0, i64 %143
  %145 = load i32, i32* %3, align 4
  %146 = sext i32 %145 to i64
  %147 = getelementptr inbounds [11 x i32], [11 x i32]* %144, i64 0, i64 %146
  store i32 %141, i32* %147, align 4
  br label %148

148:                                              ; preds = %134
  %149 = load i32, i32* %3, align 4
  %150 = add nsw i32 %149, 1
  store i32 %150, i32* %3, align 4
  br label %131

151:                                              ; preds = %131
  br label %152

152:                                              ; preds = %151
  %153 = load i32, i32* %2, align 4
  %154 = add nsw i32 %153, 1
  store i32 %154, i32* %2, align 4
  br label %127

155:                                              ; preds = %127
  br label %156

156:                                              ; preds = %155
  %157 = load i32, i32* %4, align 4
  %158 = add nsw i32 %157, 1
  store i32 %158, i32* %4, align 4
  br label %16

159:                                              ; preds = %16
  store i32 1, i32* %2, align 4
  br label %160

160:                                              ; preds = %198, %159
  %161 = load i32, i32* %2, align 4
  %162 = icmp slt i32 %161, 10
  br i1 %162, label %163, label %201

163:                                              ; preds = %160
  store i32 1, i32* %3, align 4
  br label %164

164:                                              ; preds = %194, %163
  %165 = load i32, i32* %3, align 4
  %166 = icmp slt i32 %165, 10
  br i1 %166, label %167, label %197

167:                                              ; preds = %164
  %168 = load i32, i32* %3, align 4
  %169 = icmp eq i32 %168, 1
  br i1 %169, label %170, label %179

170:                                              ; preds = %167
  %171 = load i32, i32* %2, align 4
  %172 = sext i32 %171 to i64
  %173 = getelementptr inbounds [11 x [11 x i32]], [11 x [11 x i32]]* %8, i64 0, i64 %172
  %174 = load i32, i32* %3, align 4
  %175 = sext i32 %174 to i64
  %176 = getelementptr inbounds [11 x i32], [11 x i32]* %173, i64 0, i64 %175
  %177 = load i32, i32* %176, align 4
  %178 = call i32 (i8*, ...) @printf(i8* getelementptr inbounds ([3 x i8], [3 x i8]* @.str.1, i64 0, i64 0), i32 %177)
  br label %188

179:                                              ; preds = %167
  %180 = load i32, i32* %2, align 4
  %181 = sext i32 %180 to i64
  %182 = getelementptr inbounds [11 x [11 x i32]], [11 x [11 x i32]]* %8, i64 0, i64 %181
  %183 = load i32, i32* %3, align 4
  %184 = sext i32 %183 to i64
  %185 = getelementptr inbounds [11 x i32], [11 x i32]* %182, i64 0, i64 %184
  %186 = load i32, i32* %185, align 4
  %187 = call i32 (i8*, ...) @printf(i8* getelementptr inbounds ([4 x i8], [4 x i8]* @.str.2, i64 0, i64 0), i32 %186)
  br label %188

188:                                              ; preds = %179, %170
  %189 = load i32, i32* %3, align 4
  %190 = icmp eq i32 %189, 9
  br i1 %190, label %191, label %193

191:                                              ; preds = %188
  %192 = call i32 (i8*, ...) @printf(i8* getelementptr inbounds ([2 x i8], [2 x i8]* @.str.3, i64 0, i64 0))
  br label %193

193:                                              ; preds = %191, %188
  br label %194

194:                                              ; preds = %193
  %195 = load i32, i32* %3, align 4
  %196 = add nsw i32 %195, 1
  store i32 %196, i32* %3, align 4
  br label %164

197:                                              ; preds = %164
  br label %198

198:                                              ; preds = %197
  %199 = load i32, i32* %2, align 4
  %200 = add nsw i32 %199, 1
  store i32 %200, i32* %2, align 4
  br label %160

201:                                              ; preds = %160
  %202 = load i32, i32* %1, align 4
  ret i32 %202
}